target datalayout = "e-m:e-p270:32:32-p271:32:32-p272:64:64-i64:64-i128:128-f80:128-n8:16:32:64-S128"
target triple = "x86_64-pc-linux-gnu"

%struct.darktable_t = type { %struct.dt_codepath_t, i32, i32, ptr, ptr, ptr, ptr, ptr, ptr, ptr, ptr, ptr, ptr, ptr, ptr, ptr, ptr, ptr, ptr, ptr, ptr, ptr, ptr, ptr, ptr, ptr, ptr, ptr, ptr, ptr, [64 x %struct.dt_pthread_mutex_t], %struct.dt_pthread_mutex_t, %struct.dt_pthread_mutex_t, %struct.dt_pthread_mutex_t, %struct.dt_pthread_mutex_t, %struct.dt_pthread_mutex_t, ptr, ptr, ptr, ptr, ptr, ptr, ptr, ptr, ptr, ptr, ptr, ptr, ptr, %struct.dt_lua_state_t, ptr, double, ptr, i32, [47 x i32], i32, i32, ptr, ptr, %struct.dt_sys_resources_t, %struct.dt_backthumb_t, %struct.dt_gimp_t }
%struct.dt_codepath_t = type { i8, [3 x i8] }
%struct.dt_pthread_mutex_t = type { %union.pthread_mutex_t }
%union.pthread_mutex_t = type { %struct.__pthread_mutex_s }
%struct.__pthread_mutex_s = type { i32, i32, i32, i32, i32, i16, i16, %struct.__pthread_internal_list }
%struct.__pthread_internal_list = type { ptr, ptr }
%struct.dt_lua_state_t = type { i32 }
%struct.dt_sys_resources_t = type { i64, i64, ptr, ptr, i32 }
%struct.dt_backthumb_t = type { double, double, i32, i32, i32, i32 }
%struct.dt_gimp_t = type { i32, ptr, ptr, i32, i32 }
%struct.dt_view_manager_t = type { ptr, ptr, ptr, %struct.dt_history_copy_item_t, %struct.anon.4, %struct.dt_act_on_cache_t, %struct.dt_act_on_cache_t, %struct.anon.5, %struct.anon.6, ptr, ptr, ptr, ptr, ptr, %struct.anon.7 }
%struct.dt_history_copy_item_t = type { ptr, ptr, i32, i32, i32 }
%struct.anon.4 = type { ptr, ptr, ptr, i32, i32 }
%struct.dt_act_on_cache_t = type { ptr, i32, i32, i32, i32, ptr, i32, i32 }
%struct.anon.5 = type { ptr, ptr, ptr, ptr, ptr, ptr }
%struct.anon.6 = type { i32, i32, i32 }
%struct.anon.7 = type { %struct.anon.8, %struct.anon.9, %struct.anon.10, %struct.anon.11, %struct.anon.12, %struct.anon.13, %struct.anon.14, %struct.anon.15, %struct.anon.16, %struct.anon.17, %struct.anon.18, %struct.anon.19 }
%struct.anon.8 = type { ptr, ptr }
%struct.anon.9 = type { ptr, ptr }
%struct.anon.10 = type { ptr, ptr, ptr, ptr }
%struct.anon.11 = type { ptr, ptr }
%struct.anon.12 = type { ptr }
%struct.anon.13 = type { ptr, ptr, ptr, ptr, ptr }
%struct.anon.14 = type { ptr }
%struct.anon.15 = type { ptr, ptr }
%struct.anon.16 = type { ptr, ptr, ptr, ptr, ptr, ptr, ptr, ptr, ptr, ptr, ptr, ptr }
%struct.anon.17 = type { ptr, ptr, ptr, ptr }
%struct.anon.18 = type { ptr }
%struct.anon.19 = type { ptr, ptr }

@darktable = external global %struct.darktable_t, align 8

; Function Attrs: nounwind uwtable
define internal float @_action_process_accels_show(ptr noundef %0, i32 noundef %1, i32 noundef %2, float noundef %3) #0 {
  %5 = alloca ptr, align 8
  %6 = alloca i32, align 4
  %7 = alloca i32, align 4
  %8 = alloca float, align 4
  store ptr %0, ptr %5, align 8, !tbaa !6
  store i32 %1, ptr %6, align 4, !tbaa !10
  store i32 %2, ptr %7, align 4, !tbaa !10
  store float %3, ptr %8, align 4, !tbaa !12
  %9 = load float, ptr %8, align 4, !tbaa !12
  %10 = fcmp reassoc nsz arcp contract afn une float %9, 0xC7EFFFFFE0000000
  br i1 %10, label %11, label %30

11:                                               ; preds = %4
  %12 = load ptr, ptr getelementptr inbounds nuw (%struct.darktable_t, ptr @darktable, i32 0, i32 11), align 8, !tbaa !14
  %13 = getelementptr inbounds nuw %struct.dt_view_manager_t, ptr %12, i32 0, i32 4
  %14 = getelementptr inbounds nuw %struct.anon.4, ptr %13, i32 0, i32 0
  %15 = load ptr, ptr %14, align 8, !tbaa !52
  %16 = icmp eq ptr %15, null
  br i1 %16, label %17, label %23

17:                                               ; preds = %11
  %18 = load i32, ptr %7, align 4, !tbaa !10
  %19 = icmp ne i32 %18, 2
  br i1 %19, label %20, label %22

20:                                               ; preds = %17
  %21 = load ptr, ptr getelementptr inbounds nuw (%struct.darktable_t, ptr @darktable, i32 0, i32 11), align 8, !tbaa !14
  call void @dt_view_accels_show(ptr noundef %21)
  br label %22

22:                                               ; preds = %20, %17
  br label %29

23:                                               ; preds = %11
  %24 = load i32, ptr %7, align 4, !tbaa !10
  %25 = icmp ne i32 %24, 1
  br i1 %25, label %26, label %28

26:                                               ; preds = %23
  %27 = load ptr, ptr getelementptr inbounds nuw (%struct.darktable_t, ptr @darktable, i32 0, i32 11), align 8, !tbaa !14
  call void @dt_view_accels_hide(ptr noundef %27)
  br label %28

28:                                               ; preds = %26, %23
  br label %29

29:                                               ; preds = %28, %22
  br label %30

30:                                               ; preds = %29, %4
  %31 = load ptr, ptr getelementptr inbounds nuw (%struct.darktable_t, ptr @darktable, i32 0, i32 11), align 8, !tbaa !14
  %32 = getelementptr inbounds nuw %struct.dt_view_manager_t, ptr %31, i32 0, i32 4
  %33 = getelementptr inbounds nuw %struct.anon.4, ptr %32, i32 0, i32 0
  %34 = load ptr, ptr %33, align 8, !tbaa !52
  %35 = icmp ne ptr %34, null
  %36 = zext i1 %35 to i32
  %37 = sitofp i32 %36 to float
  ret float %37
}