; Function Attrs: nounwind uwtable
define internal float @_action_process_accels_show(ptr readnone captures(none) %0, i32 %1, i32 noundef %2, float noundef %3) #0 {
  %5 = fcmp reassoc nsz arcp contract afn une float %3, 0xC7EFFFFFE0000000
  br i1 %5, label %6, label %15

6:                                                ; preds = %4
  %7 = load ptr, ptr getelementptr inbounds nuw (i8, ptr @darktable, i64 80), align 8, !tbaa !6
  %8 = getelementptr inbounds nuw i8, ptr %7, i64 56
  %9 = load ptr, ptr %8, align 8, !tbaa !48
  %10 = icmp eq ptr %9, null
  br i1 %10, label %11, label %13

11:                                               ; preds = %6
  %.not2 = icmp eq i32 %2, 2
  br i1 %.not2, label %15, label %12

12:                                               ; preds = %11
  tail call void @dt_view_accels_show(ptr noundef nonnull %7) #13
  br label %15

13:                                               ; preds = %6
  %.not = icmp eq i32 %2, 1
  br i1 %.not, label %15, label %14

14:                                               ; preds = %13
  tail call void @dt_view_accels_hide(ptr noundef nonnull %7) #13
  br label %15

15:                                               ; preds = %12, %11, %14, %13, %4
  %16 = load ptr, ptr getelementptr inbounds nuw (i8, ptr @darktable, i64 80), align 8, !tbaa !6
  %17 = getelementptr inbounds nuw i8, ptr %16, i64 56
  %18 = load ptr, ptr %17, align 8, !tbaa !48
  %19 = icmp ne ptr %18, null
  %20 = uitofp i1 %19 to float
  ret float %20
}